target datalayout = "e-m:e-p270:32:32-p271:32:32-p272:64:64-i64:64-i128:128-f80:128-n8:16:32:64-S128"
target triple = "x86_64-pc-linux-gnu"

%struct.permInfo = type { i32, ptr, i32, i32, ptr, i32, i32 }

; Function Attrs: nounwind uwtable
define void @freePermInfoPtr(ptr noundef %0) #0 {
  %2 = alloca ptr, align 8
  store ptr %0, ptr %2, align 8, !tbaa !3
  %3 = load ptr, ptr %2, align 8, !tbaa !3
  %4 = getelementptr inbounds nuw %struct.permInfo, ptr %3, i32 0, i32 4
  %5 = load ptr, ptr %4, align 8, !tbaa !30
  call void @free(ptr noundef %5) #7
  %6 = load ptr, ptr %2, align 8, !tbaa !3
  %7 = getelementptr inbounds nuw %struct.permInfo, ptr %6, i32 0, i32 1
  %8 = load ptr, ptr %7, align 8, !tbaa !25
  call void @free(ptr noundef %8) #7
  %9 = load ptr, ptr %2, align 8, !tbaa !3
  call void @free(ptr noundef %9) #7
  ret void
}