; Function Attrs: mustprogress nounwind willreturn uwtable
define void @freePermInfoPtr(ptr noundef captures(none) %0) local_unnamed_addr #5 {
  %2 = getelementptr inbounds nuw i8, ptr %0, i64 24
  %3 = load ptr, ptr %2, align 8, !tbaa !28
  tail call void @free(ptr noundef %3) #11
  %4 = getelementptr inbounds nuw i8, ptr %0, i64 8
  %5 = load ptr, ptr %4, align 8, !tbaa !25
  tail call void @free(ptr noundef %5) #11
  tail call void @free(ptr noundef %0) #11
  ret void
}